target datalayout = "e-m:e-p270:32:32-p271:32:32-p272:64:64-i64:64-i128:128-f80:128-n8:16:32:64-S128"
target triple = "x86_64-pc-linux-gnu"

%"class.LIEF::MachO::DyldExportsTrie" = type { %"class.LIEF::MachO::LoadCommand", i32, i32, %"class.tcb::span", %"class.std::vector.0" }
%"class.LIEF::MachO::LoadCommand" = type { %"class.LIEF::Object", %"class.std::vector", i64, i32, i64 }
%"class.LIEF::Object" = type { ptr }
%"class.std::vector" = type { %"struct.std::_Vector_base" }
%"struct.std::_Vector_base" = type { %"struct.std::_Vector_base<unsigned char, std::allocator<unsigned char>>::_Vector_impl" }
%"struct.std::_Vector_base<unsigned char, std::allocator<unsigned char>>::_Vector_impl" = type { %"struct.std::_Vector_base<unsigned char, std::allocator<unsigned char>>::_Vector_impl_data" }
%"struct.std::_Vector_base<unsigned char, std::allocator<unsigned char>>::_Vector_impl_data" = type { ptr, ptr, ptr }
%"class.tcb::span" = type { %"struct.tcb::detail::span_storage" }
%"struct.tcb::detail::span_storage" = type { ptr, i64 }
%"class.std::vector.0" = type { %"struct.std::_Vector_base.1" }
%"struct.std::_Vector_base.1" = type { %"struct.std::_Vector_base<std::unique_ptr<LIEF::MachO::ExportInfo>, std::allocator<std::unique_ptr<LIEF::MachO::ExportInfo>>>::_Vector_impl" }
%"struct.std::_Vector_base<std::unique_ptr<LIEF::MachO::ExportInfo>, std::allocator<std::unique_ptr<LIEF::MachO::ExportInfo>>>::_Vector_impl" = type { %"struct.std::_Vector_base<std::unique_ptr<LIEF::MachO::ExportInfo>, std::allocator<std::unique_ptr<LIEF::MachO::ExportInfo>>>::_Vector_impl_data" }
%"struct.std::_Vector_base<std::unique_ptr<LIEF::MachO::ExportInfo>, std::allocator<std::unique_ptr<LIEF::MachO::ExportInfo>>>::_Vector_impl_data" = type { ptr, ptr, ptr }
%"class.LIEF::ref_iterator.8" = type { ptr, %"class.__gnu_cxx::__normal_iterator.9", i64 }
%"class.__gnu_cxx::__normal_iterator.9" = type { ptr }

; Function Attrs: mustprogress nounwind uwtable
define linkonce_odr hidden void @_ZN9__gnu_cxx17__normal_iteratorIPKSt10unique_ptrIN4LIEF5MachO10ExportInfoESt14default_deleteIS4_EESt6vectorIS7_SaIS7_EEEC2ERKS9_(ptr noundef nonnull align 8 dereferenceable(8) %0, ptr noundef nonnull align 8 dereferenceable(8) %1) unnamed_addr #2 comdat align 2 {
  %3 = alloca ptr, align 8
  %4 = alloca ptr, align 8
  store ptr %0, ptr %3, align 8
  store ptr %1, ptr %4, align 8
  %5 = load ptr, ptr %3, align 8
  %6 = getelementptr inbounds %"class.__gnu_cxx::__normal_iterator.9", ptr %5, i32 0, i32 0
  %7 = load ptr, ptr %4, align 8
  %8 = load ptr, ptr %7, align 8
  store ptr %8, ptr %6, align 8
  ret void
}

; Function Attrs: mustprogress nounwind uwtable
define linkonce_odr hidden ptr @_ZNKSt6vectorISt10unique_ptrIN4LIEF5MachO10ExportInfoESt14default_deleteIS3_EESaIS6_EE5beginEv(ptr noundef nonnull align 8 dereferenceable(24) %0) #2 comdat align 2 {
  %2 = alloca %"class.__gnu_cxx::__normal_iterator.9", align 8
  %3 = alloca ptr, align 8
  store ptr %0, ptr %3, align 8
  %4 = load ptr, ptr %3, align 8
  %5 = getelementptr inbounds %"struct.std::_Vector_base.1", ptr %4, i32 0, i32 0
  %6 = getelementptr inbounds %"struct.std::_Vector_base<std::unique_ptr<LIEF::MachO::ExportInfo>, std::allocator<std::unique_ptr<LIEF::MachO::ExportInfo>>>::_Vector_impl_data", ptr %5, i32 0, i32 0
  call void @_ZN9__gnu_cxx17__normal_iteratorIPKSt10unique_ptrIN4LIEF5MachO10ExportInfoESt14default_deleteIS4_EESt6vectorIS7_SaIS7_EEEC2ERKS9_(ptr noundef nonnull align 8 dereferenceable(8) %2, ptr noundef nonnull align 8 dereferenceable(8) %6) #10
  %7 = getelementptr inbounds %"class.__gnu_cxx::__normal_iterator.9", ptr %2, i32 0, i32 0
  %8 = load ptr, ptr %7, align 8
  ret ptr %8
}

; Function Attrs: mustprogress nounwind uwtable
define linkonce_odr ptr @_ZSt5beginISt6vectorISt10unique_ptrIN4LIEF5MachO10ExportInfoESt14default_deleteIS4_EESaIS7_EEEDTcldtfp_5beginEERKT_(ptr noundef nonnull align 8 dereferenceable(24) %0) #2 comdat {
  %2 = alloca %"class.__gnu_cxx::__normal_iterator.9", align 8
  %3 = alloca ptr, align 8
  store ptr %0, ptr %3, align 8
  %4 = load ptr, ptr %3, align 8
  %5 = call ptr @_ZNKSt6vectorISt10unique_ptrIN4LIEF5MachO10ExportInfoESt14default_deleteIS3_EESaIS6_EE5beginEv(ptr noundef nonnull align 8 dereferenceable(24) %4) #10
  %6 = getelementptr inbounds %"class.__gnu_cxx::__normal_iterator.9", ptr %2, i32 0, i32 0
  store ptr %5, ptr %6, align 8
  %7 = getelementptr inbounds %"class.__gnu_cxx::__normal_iterator.9", ptr %2, i32 0, i32 0
  %8 = load ptr, ptr %7, align 8
  ret ptr %8
}

; Function Attrs: mustprogress nounwind uwtable
define linkonce_odr hidden void @_ZN9__gnu_cxx17__normal_iteratorIPKSt10unique_ptrIN4LIEF5MachO10ExportInfoESt14default_deleteIS4_EESt6vectorIS7_SaIS7_EEEC2Ev(ptr noundef nonnull align 8 dereferenceable(8) %0) unnamed_addr #2 comdat align 2 {
  %2 = alloca ptr, align 8
  store ptr %0, ptr %2, align 8
  %3 = load ptr, ptr %2, align 8
  %4 = getelementptr inbounds %"class.__gnu_cxx::__normal_iterator.9", ptr %3, i32 0, i32 0
  store ptr null, ptr %4, align 8
  ret void
}

; Function Attrs: mustprogress uwtable
define linkonce_odr hidden void @_ZN4LIEF12ref_iteratorIRKSt6vectorISt10unique_ptrINS_5MachO10ExportInfoESt14default_deleteIS4_EESaIS7_EEPS4_N9__gnu_cxx17__normal_iteratorIPKS7_S9_EEEC2ESB_(ptr noundef nonnull align 8 dereferenceable(24) %0, ptr noundef nonnull align 8 dereferenceable(24) %1) unnamed_addr #0 comdat align 2 {
  %3 = alloca ptr, align 8
  %4 = alloca ptr, align 8
  %5 = alloca %"class.__gnu_cxx::__normal_iterator.9", align 8
  store ptr %0, ptr %3, align 8
  store ptr %1, ptr %4, align 8
  %6 = load ptr, ptr %3, align 8
  %7 = getelementptr inbounds %"class.LIEF::ref_iterator.8", ptr %6, i32 0, i32 0
  %8 = load ptr, ptr %4, align 8
  store ptr %8, ptr %7, align 8
  %9 = getelementptr inbounds %"class.LIEF::ref_iterator.8", ptr %6, i32 0, i32 1
  call void @_ZN9__gnu_cxx17__normal_iteratorIPKSt10unique_ptrIN4LIEF5MachO10ExportInfoESt14default_deleteIS4_EESt6vectorIS7_SaIS7_EEEC2Ev(ptr noundef nonnull align 8 dereferenceable(8) %9) #10
  %10 = getelementptr inbounds %"class.LIEF::ref_iterator.8", ptr %6, i32 0, i32 2
  store i64 0, ptr %10, align 8
  %11 = getelementptr inbounds %"class.LIEF::ref_iterator.8", ptr %6, i32 0, i32 0
  %12 = load ptr, ptr %11, align 8
  %13 = call ptr @_ZSt5beginISt6vectorISt10unique_ptrIN4LIEF5MachO10ExportInfoESt14default_deleteIS4_EESaIS7_EEEDTcldtfp_5beginEERKT_(ptr noundef nonnull align 8 dereferenceable(24) %12)
  %14 = getelementptr inbounds %"class.__gnu_cxx::__normal_iterator.9", ptr %5, i32 0, i32 0
  store ptr %13, ptr %14, align 8
  %15 = getelementptr inbounds %"class.LIEF::ref_iterator.8", ptr %6, i32 0, i32 1
  call void @llvm.memcpy.p0.p0.i64(ptr align 8 %15, ptr align 8 %5, i64 8, i1 false)
  ret void
}

; Function Attrs: mustprogress uwtable
define void @_ZNK4LIEF5MachO15DyldExportsTrie7exportsEv(ptr dead_on_unwind noalias writable sret(%"class.LIEF::ref_iterator.8") align 8 %0, ptr noundef nonnull align 8 dereferenceable(104) %1) #0 align 2 {
  %3 = alloca ptr, align 8
  %4 = alloca ptr, align 8
  store ptr %0, ptr %3, align 8
  store ptr %1, ptr %4, align 8
  %5 = load ptr, ptr %4, align 8
  %6 = getelementptr inbounds %"class.LIEF::MachO::DyldExportsTrie", ptr %5, i32 0, i32 4
  call void @_ZN4LIEF12ref_iteratorIRKSt6vectorISt10unique_ptrINS_5MachO10ExportInfoESt14default_deleteIS4_EESaIS7_EEPS4_N9__gnu_cxx17__normal_iteratorIPKS7_S9_EEEC2ESB_(ptr noundef nonnull align 8 dereferenceable(24) %0, ptr noundef nonnull align 8 dereferenceable(24) %6)
  ret void
}